target datalayout = "e-m:e-p270:32:32-p271:32:32-p272:64:64-i64:64-i128:128-f80:128-n8:16:32:64-S128"
target triple = "x86_64-pc-linux-gnu"

%struct.Agdesc_s = type { i8, [3 x i8] }
%struct.Agobj_s = type { %struct.Agtag_s, ptr }
%struct.Agtag_s = type { i32, i64 }
%struct.Agraph_s = type { %struct.Agobj_s, %struct.Agdesc_s, %struct.dtlink_s_, %struct.dtlink_s_, ptr, ptr, ptr, ptr, ptr, ptr, ptr, ptr, ptr }
%struct.dtlink_s_ = type { ptr, %union.anon }
%union.anon = type { ptr }
%struct.Agsubnode_s = type { %struct.dtlink_s_, %struct.dtlink_s_, ptr, ptr, ptr, ptr, ptr }
%struct.Agedge_s = type { %struct.Agobj_s, %struct.dtlink_s_, %struct.dtlink_s_, ptr }

; Function Attrs: nounwind uwtable
define internal i32 @cnt(ptr noundef %0, ptr noundef %1) #0 {
  %3 = alloca ptr, align 8
  %4 = alloca ptr, align 8
  %5 = alloca i32, align 4
  store ptr %0, ptr %3, align 8, !tbaa !77
  store ptr %1, ptr %4, align 8, !tbaa !78
  call void @llvm.lifetime.start.p0(i64 4, ptr %5) #9
  %6 = load ptr, ptr %3, align 8, !tbaa !77
  %7 = load ptr, ptr %4, align 8, !tbaa !78
  %8 = load ptr, ptr %7, align 8, !tbaa !80
  %9 = call i32 @dtrestore(ptr noundef %6, ptr noundef %8)
  %10 = load ptr, ptr %3, align 8, !tbaa !77
  %11 = call i32 @dtsize(ptr noundef %10)
  store i32 %11, ptr %5, align 4, !tbaa !57
  %12 = load ptr, ptr %3, align 8, !tbaa !77
  %13 = call ptr @dtextract(ptr noundef %12)
  %14 = load ptr, ptr %4, align 8, !tbaa !78
  store ptr %13, ptr %14, align 8, !tbaa !80
  %15 = load i32, ptr %5, align 4, !tbaa !57
  call void @llvm.lifetime.end.p0(i64 4, ptr %5) #9
  ret i32 %15
}

; Function Attrs: nounwind uwtable
define i32 @agcountuniqedges(ptr noundef %0, ptr noundef %1, i32 noundef %2, i32 noundef %3) #0 {
  %5 = alloca ptr, align 8
  %6 = alloca ptr, align 8
  %7 = alloca i32, align 4
  %8 = alloca i32, align 4
  %9 = alloca ptr, align 8
  %10 = alloca ptr, align 8
  %11 = alloca i32, align 4
  store ptr %0, ptr %5, align 8, !tbaa !12
  store ptr %1, ptr %6, align 8, !tbaa !60
  store i32 %2, ptr %7, align 4, !tbaa !57
  store i32 %3, ptr %8, align 4, !tbaa !57
  call void @llvm.lifetime.start.p0(i64 8, ptr %9) #9
  call void @llvm.lifetime.start.p0(i64 8, ptr %10) #9
  call void @llvm.lifetime.start.p0(i64 4, ptr %11) #9
  store i32 0, ptr %11, align 4, !tbaa !57
  %12 = load ptr, ptr %5, align 8, !tbaa !12
  %13 = load ptr, ptr %6, align 8, !tbaa !60
  %14 = call ptr @agsubrep(ptr noundef %12, ptr noundef %13)
  store ptr %14, ptr %10, align 8, !tbaa !70
  %15 = load i32, ptr %8, align 4, !tbaa !57
  %16 = icmp ne i32 %15, 0
  br i1 %16, label %17, label %24

17:                                               ; preds = %4
  %18 = load ptr, ptr %5, align 8, !tbaa !12
  %19 = getelementptr inbounds nuw %struct.Agraph_s, ptr %18, i32 0, i32 6
  %20 = load ptr, ptr %19, align 8, !tbaa !49
  %21 = load ptr, ptr %10, align 8, !tbaa !70
  %22 = getelementptr inbounds nuw %struct.Agsubnode_s, ptr %21, i32 0, i32 6
  %23 = call i32 @cnt(ptr noundef %20, ptr noundef %22)
  store i32 %23, ptr %11, align 4, !tbaa !57
  br label %24

24:                                               ; preds = %17, %4
  %25 = load i32, ptr %7, align 4, !tbaa !57
  %26 = icmp ne i32 %25, 0
  br i1 %26, label %27, label %62

27:                                               ; preds = %24
  %28 = load i32, ptr %8, align 4, !tbaa !57
  %29 = icmp ne i32 %28, 0
  br i1 %29, label %39, label %30

30:                                               ; preds = %27
  %31 = load ptr, ptr %5, align 8, !tbaa !12
  %32 = getelementptr inbounds nuw %struct.Agraph_s, ptr %31, i32 0, i32 6
  %33 = load ptr, ptr %32, align 8, !tbaa !49
  %34 = load ptr, ptr %10, align 8, !tbaa !70
  %35 = getelementptr inbounds nuw %struct.Agsubnode_s, ptr %34, i32 0, i32 5
  %36 = call i32 @cnt(ptr noundef %33, ptr noundef %35)
  %37 = load i32, ptr %11, align 4, !tbaa !57
  %38 = add nsw i32 %37, %36
  store i32 %38, ptr %11, align 4, !tbaa !57
  br label %61

39:                                               ; preds = %27
  %40 = load ptr, ptr %5, align 8, !tbaa !12
  %41 = load ptr, ptr %6, align 8, !tbaa !60
  %42 = call ptr @agfstin(ptr noundef %40, ptr noundef %41)
  store ptr %42, ptr %9, align 8, !tbaa !72
  br label %43

43:                                               ; preds = %56, %39
  %44 = load ptr, ptr %9, align 8, !tbaa !72
  %45 = icmp ne ptr %44, null
  br i1 %45, label %46, label %60

46:                                               ; preds = %43
  %47 = load ptr, ptr %9, align 8, !tbaa !72
  %48 = getelementptr inbounds nuw %struct.Agedge_s, ptr %47, i32 0, i32 3
  %49 = load ptr, ptr %48, align 8, !tbaa !74
  %50 = load ptr, ptr %6, align 8, !tbaa !60
  %51 = icmp ne ptr %49, %50
  br i1 %51, label %52, label %55

52:                                               ; preds = %46
  %53 = load i32, ptr %11, align 4, !tbaa !57
  %54 = add nsw i32 %53, 1
  store i32 %54, ptr %11, align 4, !tbaa !57
  br label %55

55:                                               ; preds = %52, %46
  br label %56

56:                                               ; preds = %55
  %57 = load ptr, ptr %5, align 8, !tbaa !12
  %58 = load ptr, ptr %9, align 8, !tbaa !72
  %59 = call ptr @agnxtin(ptr noundef %57, ptr noundef %58)
  store ptr %59, ptr %9, align 8, !tbaa !72
  br label %43, !llvm.loop !76

60:                                               ; preds = %43
  br label %61

61:                                               ; preds = %60, %30
  br label %62

62:                                               ; preds = %61, %24
  %63 = load i32, ptr %11, align 4, !tbaa !57
  call void @llvm.lifetime.end.p0(i64 4, ptr %11) #9
  call void @llvm.lifetime.end.p0(i64 8, ptr %10) #9
  call void @llvm.lifetime.end.p0(i64 8, ptr %9) #9
  ret i32 %63
}