; Function Attrs: nounwind uwtable
define i32 @agcountuniqedges(ptr noundef %0, ptr noundef %1, i32 noundef %2, i32 noundef %3) local_unnamed_addr #0 {
  %5 = tail call ptr @agsubrep(ptr noundef %0, ptr noundef %1) #11
  %.not = icmp eq i32 %3, 0
  br i1 %.not, label %6, label %.thread

6:                                                ; preds = %4
  %.not19 = icmp eq i32 %2, 0
  br i1 %.not19, label %.loopexit, label %14

.thread:                                          ; preds = %4
  %7 = getelementptr inbounds nuw i8, ptr %0, i64 80
  %8 = load ptr, ptr %7, align 8, !tbaa !41
  %9 = getelementptr inbounds nuw i8, ptr %5, i64 64
  %10 = load ptr, ptr %9, align 8, !tbaa !58
  %11 = tail call i32 @dtrestore(ptr noundef %8, ptr noundef %10) #11
  %12 = tail call i32 @dtsize(ptr noundef %8) #11
  %13 = tail call ptr @dtextract(ptr noundef %8) #11
  store ptr %13, ptr %9, align 8, !tbaa !58
  %.not1923 = icmp eq i32 %2, 0
  br i1 %.not1923, label %.loopexit, label %22

14:                                               ; preds = %6
  %15 = getelementptr inbounds nuw i8, ptr %0, i64 80
  %16 = load ptr, ptr %15, align 8, !tbaa !41
  %17 = getelementptr inbounds nuw i8, ptr %5, i64 56
  %18 = load ptr, ptr %17, align 8, !tbaa !58
  %19 = tail call i32 @dtrestore(ptr noundef %16, ptr noundef %18) #11
  %20 = tail call i32 @dtsize(ptr noundef %16) #11
  %21 = tail call ptr @dtextract(ptr noundef %16) #11
  store ptr %21, ptr %17, align 8, !tbaa !58
  br label %.loopexit

22:                                               ; preds = %.thread
  %23 = tail call ptr @agfstin(ptr noundef nonnull %0, ptr noundef %1) #11
  %.not2028 = icmp eq ptr %23, null
  br i1 %.not2028, label %.loopexit, label %.lr.ph

.lr.ph:                                           ; preds = %22, %.lr.ph
  %.230 = phi i32 [ %spec.select, %.lr.ph ], [ %12, %22 ]
  %.01829 = phi ptr [ %27, %.lr.ph ], [ %23, %22 ]
  %24 = getelementptr inbounds nuw i8, ptr %.01829, i64 56
  %25 = load ptr, ptr %24, align 8, !tbaa !60
  %.not21 = icmp ne ptr %25, %1
  %26 = zext i1 %.not21 to i32
  %spec.select = add nsw i32 %.230, %26
  %27 = tail call ptr @agnxtin(ptr noundef nonnull %0, ptr noundef nonnull %.01829) #11
  %.not20 = icmp eq ptr %27, null
  br i1 %.not20, label %.loopexit, label %.lr.ph, !llvm.loop !63

.loopexit:                                        ; preds = %.lr.ph, %22, %.thread, %14, %6
  %.1 = phi i32 [ %20, %14 ], [ 0, %6 ], [ %12, %.thread ], [ %12, %22 ], [ %spec.select, %.lr.ph ]
  ret i32 %.1
}